target datalayout = "e-m:e-p270:32:32-p271:32:32-p272:64:64-i64:64-i128:128-f80:128-n8:16:32:64-S128"
target triple = "x86_64-pc-linux-gnu"

%"class.std::__cxx11::basic_string" = type { %"struct.std::__cxx11::basic_string<char>::_Alloc_hider", i64, %union.anon }
%"struct.std::__cxx11::basic_string<char>::_Alloc_hider" = type { ptr }
%union.anon = type { i64, [8 x i8] }
%class.cmOutputConverter = type <{ ptr, %class.cmStateSnapshot, i8, [7 x i8], %"class.std::__cxx11::basic_string", %"class.std::__cxx11::basic_string", i32, [4 x i8] }>
%class.cmStateSnapshot = type { ptr, %"class.cmLinkedTree<cmStateDetail::SnapshotDataType>::iterator" }
%"class.cmLinkedTree<cmStateDetail::SnapshotDataType>::iterator" = type { ptr, i64 }
%class.cmStateDirectory = type { %"class.cmLinkedTree<cmStateDetail::BuildsystemDirectoryStateType>::iterator", %class.cmStateSnapshot }
%"class.cmLinkedTree<cmStateDetail::BuildsystemDirectoryStateType>::iterator" = type { ptr, i64 }

; Function Attrs: mustprogress uwtable
define dso_local void @_ZN17cmOutputConverter28ComputeRelativePathTopSourceEv(ptr noundef nonnull align 8 dereferenceable(108) %0) #4 align 2 {
  %2 = alloca ptr, align 8
  %3 = alloca %class.cmStateSnapshot, align 8
  %4 = alloca %class.cmStateSnapshot, align 8
  %5 = alloca %class.cmStateDirectory, align 8
  %6 = alloca %class.cmStateDirectory, align 8
  %7 = alloca %class.cmStateSnapshot, align 8
  %8 = alloca %class.cmStateDirectory, align 8
  store ptr %0, ptr %2, align 8
  %9 = load ptr, ptr %2, align 8
  %10 = getelementptr inbounds %class.cmOutputConverter, ptr %9, i32 0, i32 1
  call void @llvm.memcpy.p0.p0.i64(ptr align 8 %3, ptr align 8 %10, i64 24, i1 false)
  call void @_ZNK15cmStateSnapshot29GetBuildsystemDirectoryParentEv(ptr dead_on_unwind writable sret(%class.cmStateSnapshot) align 8 %4, ptr noundef nonnull align 8 dereferenceable(24) %3)
  br label %11

11:                                               ; preds = %19, %1
  %12 = call noundef zeroext i1 @_ZNK15cmStateSnapshot7IsValidEv(ptr noundef nonnull align 8 dereferenceable(24) %4)
  br i1 %12, label %13, label %20

13:                                               ; preds = %11
  call void @_ZNK15cmStateSnapshot12GetDirectoryEv(ptr dead_on_unwind writable sret(%class.cmStateDirectory) align 8 %5, ptr noundef nonnull align 8 dereferenceable(24) %3)
  %14 = call noundef nonnull align 8 dereferenceable(32) ptr @_ZNK16cmStateDirectory16GetCurrentSourceB5cxx11Ev(ptr noundef nonnull align 8 dereferenceable(40) %5)
  call void @_ZNK15cmStateSnapshot12GetDirectoryEv(ptr dead_on_unwind writable sret(%class.cmStateDirectory) align 8 %6, ptr noundef nonnull align 8 dereferenceable(24) %4)
  %15 = call noundef nonnull align 8 dereferenceable(32) ptr @_ZNK16cmStateDirectory16GetCurrentSourceB5cxx11Ev(ptr noundef nonnull align 8 dereferenceable(40) %6)
  %16 = call noundef zeroext i1 @_ZN5cmsys11SystemTools14IsSubDirectoryERKNSt7__cxx1112basic_stringIcSt11char_traitsIcESaIcEEES8_(ptr noundef nonnull align 8 dereferenceable(32) %14, ptr noundef nonnull align 8 dereferenceable(32) %15)
  br i1 %16, label %17, label %18

17:                                               ; preds = %13
  call void @llvm.memcpy.p0.p0.i64(ptr align 8 %3, ptr align 8 %4, i64 24, i1 false)
  br label %18

18:                                               ; preds = %17, %13
  br label %19

19:                                               ; preds = %18
  call void @_ZNK15cmStateSnapshot29GetBuildsystemDirectoryParentEv(ptr dead_on_unwind writable sret(%class.cmStateSnapshot) align 8 %7, ptr noundef nonnull align 8 dereferenceable(24) %4)
  call void @llvm.memcpy.p0.p0.i64(ptr align 8 %4, ptr align 8 %7, i64 24, i1 false)
  br label %11, !llvm.loop !5

20:                                               ; preds = %11
  call void @_ZNK15cmStateSnapshot12GetDirectoryEv(ptr dead_on_unwind writable sret(%class.cmStateDirectory) align 8 %8, ptr noundef nonnull align 8 dereferenceable(24) %3)
  %21 = call noundef nonnull align 8 dereferenceable(32) ptr @_ZNK16cmStateDirectory16GetCurrentSourceB5cxx11Ev(ptr noundef nonnull align 8 dereferenceable(40) %8)
  %22 = getelementptr inbounds %class.cmOutputConverter, ptr %9, i32 0, i32 4
  %23 = call noundef nonnull align 8 dereferenceable(32) ptr @_ZNSt7__cxx1112basic_stringIcSt11char_traitsIcESaIcEEaSERKS4_(ptr noundef nonnull align 8 dereferenceable(32) %22, ptr noundef nonnull align 8 dereferenceable(32) %21)
  ret void
}